target datalayout = "e-m:e-p270:32:32-p271:32:32-p272:64:64-i64:64-i128:128-f80:128-n8:16:32:64-S128"
target triple = "x86_64-pc-linux-gnu"

%struct.Abc_ZddMan_ = type { i32, i32, i32, i32, i32, i32, ptr, ptr, ptr, ptr, i32, i32, i64, ptr, ptr, ptr }

@.str = private unnamed_addr constant [65 x i8] c"ZDD stats: Var = %d  Obj = %d  Alloc = %d  Hit = %d  Miss = %d  \00", align 1
@.str.1 = private unnamed_addr constant [15 x i8] c"Mem = %.2f MB\0A\00", align 1

; Function Attrs: nounwind uwtable
define void @Abc_ZddManFree(ptr noundef %0) #0 {
  %2 = alloca ptr, align 8
  store ptr %0, ptr %2, align 8, !tbaa !3
  %3 = load ptr, ptr %2, align 8, !tbaa !3
  %4 = getelementptr inbounds nuw %struct.Abc_ZddMan_, ptr %3, i32 0, i32 0
  %5 = load i32, ptr %4, align 8, !tbaa !32
  %6 = load ptr, ptr %2, align 8, !tbaa !3
  %7 = getelementptr inbounds nuw %struct.Abc_ZddMan_, ptr %6, i32 0, i32 1
  %8 = load i32, ptr %7, align 4, !tbaa !28
  %9 = load ptr, ptr %2, align 8, !tbaa !3
  %10 = getelementptr inbounds nuw %struct.Abc_ZddMan_, ptr %9, i32 0, i32 2
  %11 = load i32, ptr %10, align 8, !tbaa !29
  %12 = load ptr, ptr %2, align 8, !tbaa !3
  %13 = getelementptr inbounds nuw %struct.Abc_ZddMan_, ptr %12, i32 0, i32 10
  %14 = load i32, ptr %13, align 8, !tbaa !44
  %15 = load ptr, ptr %2, align 8, !tbaa !3
  %16 = getelementptr inbounds nuw %struct.Abc_ZddMan_, ptr %15, i32 0, i32 11
  %17 = load i32, ptr %16, align 4, !tbaa !45
  %18 = sub nsw i32 %14, %17
  %19 = load ptr, ptr %2, align 8, !tbaa !3
  %20 = getelementptr inbounds nuw %struct.Abc_ZddMan_, ptr %19, i32 0, i32 11
  %21 = load i32, ptr %20, align 4, !tbaa !45
  %22 = call i32 (ptr, ...) @printf(ptr noundef @.str, i32 noundef %5, i32 noundef %8, i32 noundef %11, i32 noundef %18, i32 noundef %21)
  %23 = load ptr, ptr %2, align 8, !tbaa !3
  %24 = getelementptr inbounds nuw %struct.Abc_ZddMan_, ptr %23, i32 0, i32 12
  %25 = load i64, ptr %24, align 8, !tbaa !36
  %26 = udiv i64 %25, 1048576
  %27 = trunc i64 %26 to i32
  %28 = sitofp i32 %27 to double
  %29 = fmul double 4.000000e+00, %28
  %30 = call i32 (ptr, ...) @printf(ptr noundef @.str.1, double noundef %29)
  %31 = load ptr, ptr %2, align 8, !tbaa !3
  %32 = getelementptr inbounds nuw %struct.Abc_ZddMan_, ptr %31, i32 0, i32 15
  %33 = load ptr, ptr %32, align 8, !tbaa !41
  %34 = icmp ne ptr %33, null
  br i1 %34, label %35, label %41

35:                                               ; preds = %1
  %36 = load ptr, ptr %2, align 8, !tbaa !3
  %37 = getelementptr inbounds nuw %struct.Abc_ZddMan_, ptr %36, i32 0, i32 15
  %38 = load ptr, ptr %37, align 8, !tbaa !41
  call void @free(ptr noundef %38) #12
  %39 = load ptr, ptr %2, align 8, !tbaa !3
  %40 = getelementptr inbounds nuw %struct.Abc_ZddMan_, ptr %39, i32 0, i32 15
  store ptr null, ptr %40, align 8, !tbaa !41
  br label %42

41:                                               ; preds = %1
  br label %42

42:                                               ; preds = %41, %35
  %43 = load ptr, ptr %2, align 8, !tbaa !3
  %44 = getelementptr inbounds nuw %struct.Abc_ZddMan_, ptr %43, i32 0, i32 13
  %45 = load ptr, ptr %44, align 8, !tbaa !39
  %46 = icmp ne ptr %45, null
  br i1 %46, label %47, label %53

47:                                               ; preds = %42
  %48 = load ptr, ptr %2, align 8, !tbaa !3
  %49 = getelementptr inbounds nuw %struct.Abc_ZddMan_, ptr %48, i32 0, i32 13
  %50 = load ptr, ptr %49, align 8, !tbaa !39
  call void @free(ptr noundef %50) #12
  %51 = load ptr, ptr %2, align 8, !tbaa !3
  %52 = getelementptr inbounds nuw %struct.Abc_ZddMan_, ptr %51, i32 0, i32 13
  store ptr null, ptr %52, align 8, !tbaa !39
  br label %54

53:                                               ; preds = %42
  br label %54

54:                                               ; preds = %53, %47
  %55 = load ptr, ptr %2, align 8, !tbaa !3
  %56 = getelementptr inbounds nuw %struct.Abc_ZddMan_, ptr %55, i32 0, i32 14
  %57 = load ptr, ptr %56, align 8, !tbaa !40
  %58 = icmp ne ptr %57, null
  br i1 %58, label %59, label %65

59:                                               ; preds = %54
  %60 = load ptr, ptr %2, align 8, !tbaa !3
  %61 = getelementptr inbounds nuw %struct.Abc_ZddMan_, ptr %60, i32 0, i32 14
  %62 = load ptr, ptr %61, align 8, !tbaa !40
  call void @free(ptr noundef %62) #12
  %63 = load ptr, ptr %2, align 8, !tbaa !3
  %64 = getelementptr inbounds nuw %struct.Abc_ZddMan_, ptr %63, i32 0, i32 14
  store ptr null, ptr %64, align 8, !tbaa !40
  br label %66

65:                                               ; preds = %54
  br label %66

66:                                               ; preds = %65, %59
  %67 = load ptr, ptr %2, align 8, !tbaa !3
  %68 = getelementptr inbounds nuw %struct.Abc_ZddMan_, ptr %67, i32 0, i32 6
  %69 = load ptr, ptr %68, align 8, !tbaa !16
  %70 = icmp ne ptr %69, null
  br i1 %70, label %71, label %77

71:                                               ; preds = %66
  %72 = load ptr, ptr %2, align 8, !tbaa !3
  %73 = getelementptr inbounds nuw %struct.Abc_ZddMan_, ptr %72, i32 0, i32 6
  %74 = load ptr, ptr %73, align 8, !tbaa !16
  call void @free(ptr noundef %74) #12
  %75 = load ptr, ptr %2, align 8, !tbaa !3
  %76 = getelementptr inbounds nuw %struct.Abc_ZddMan_, ptr %75, i32 0, i32 6
  store ptr null, ptr %76, align 8, !tbaa !16
  br label %78

77:                                               ; preds = %66
  br label %78

78:                                               ; preds = %77, %71
  %79 = load ptr, ptr %2, align 8, !tbaa !3
  %80 = getelementptr inbounds nuw %struct.Abc_ZddMan_, ptr %79, i32 0, i32 7
  %81 = load ptr, ptr %80, align 8, !tbaa !26
  %82 = icmp ne ptr %81, null
  br i1 %82, label %83, label %89

83:                                               ; preds = %78
  %84 = load ptr, ptr %2, align 8, !tbaa !3
  %85 = getelementptr inbounds nuw %struct.Abc_ZddMan_, ptr %84, i32 0, i32 7
  %86 = load ptr, ptr %85, align 8, !tbaa !26
  call void @free(ptr noundef %86) #12
  %87 = load ptr, ptr %2, align 8, !tbaa !3
  %88 = getelementptr inbounds nuw %struct.Abc_ZddMan_, ptr %87, i32 0, i32 7
  store ptr null, ptr %88, align 8, !tbaa !26
  br label %90

89:                                               ; preds = %78
  br label %90

90:                                               ; preds = %89, %83
  %91 = load ptr, ptr %2, align 8, !tbaa !3
  %92 = getelementptr inbounds nuw %struct.Abc_ZddMan_, ptr %91, i32 0, i32 8
  %93 = load ptr, ptr %92, align 8, !tbaa !34
  %94 = icmp ne ptr %93, null
  br i1 %94, label %95, label %101

95:                                               ; preds = %90
  %96 = load ptr, ptr %2, align 8, !tbaa !3
  %97 = getelementptr inbounds nuw %struct.Abc_ZddMan_, ptr %96, i32 0, i32 8
  %98 = load ptr, ptr %97, align 8, !tbaa !34
  call void @free(ptr noundef %98) #12
  %99 = load ptr, ptr %2, align 8, !tbaa !3
  %100 = getelementptr inbounds nuw %struct.Abc_ZddMan_, ptr %99, i32 0, i32 8
  store ptr null, ptr %100, align 8, !tbaa !34
  br label %102

101:                                              ; preds = %90
  br label %102

102:                                              ; preds = %101, %95
  %103 = load ptr, ptr %2, align 8, !tbaa !3
  %104 = getelementptr inbounds nuw %struct.Abc_ZddMan_, ptr %103, i32 0, i32 9
  %105 = load ptr, ptr %104, align 8, !tbaa !22
  %106 = icmp ne ptr %105, null
  br i1 %106, label %107, label %113

107:                                              ; preds = %102
  %108 = load ptr, ptr %2, align 8, !tbaa !3
  %109 = getelementptr inbounds nuw %struct.Abc_ZddMan_, ptr %108, i32 0, i32 9
  %110 = load ptr, ptr %109, align 8, !tbaa !22
  call void @free(ptr noundef %110) #12
  %111 = load ptr, ptr %2, align 8, !tbaa !3
  %112 = getelementptr inbounds nuw %struct.Abc_ZddMan_, ptr %111, i32 0, i32 9
  store ptr null, ptr %112, align 8, !tbaa !22
  br label %114

113:                                              ; preds = %102
  br label %114

114:                                              ; preds = %113, %107
  %115 = load ptr, ptr %2, align 8, !tbaa !3
  %116 = icmp ne ptr %115, null
  br i1 %116, label %117, label %119

117:                                              ; preds = %114
  %118 = load ptr, ptr %2, align 8, !tbaa !3
  call void @free(ptr noundef %118) #12
  store ptr null, ptr %2, align 8, !tbaa !3
  br label %120

119:                                              ; preds = %114
  br label %120

120:                                              ; preds = %119, %117
  ret void
}